target datalayout = "e-m:e-p270:32:32-p271:32:32-p272:64:64-i64:64-i128:128-f80:128-n8:16:32:64-S128"
target triple = "x86_64-unknown-linux-gnu"

%"class.proxygen::Sampling" = type <{ ptr, double, i32, [4 x i8] }>
%"class.folly::ThreadLocalPRNG" = type { i8 }

; Function Attrs: mustprogress uwtable
define linkonce_odr noundef i64 @_ZN5folly6Random6rand64INS_15ThreadLocalPRNGES2_EEmOT_(ptr noundef nonnull align 1 dereferenceable(1) %rng) #0 comdat align 2 {
entry:
  %rng.addr = alloca ptr, align 8
  store ptr %rng, ptr %rng.addr, align 8
  %0 = load ptr, ptr %rng.addr, align 8
  %call = call noundef i32 @_ZN5folly15ThreadLocalPRNGclEv(ptr noundef nonnull align 1 dereferenceable(1) %0)
  %conv = zext i32 %call to i64
  %shl = shl i64 %conv, 32
  %1 = load ptr, ptr %rng.addr, align 8
  %call1 = call noundef i32 @_ZN5folly15ThreadLocalPRNGclEv(ptr noundef nonnull align 1 dereferenceable(1) %1)
  %conv2 = zext i32 %call1 to i64
  %or = or i64 %shl, %conv2
  ret i64 %or
}

; Function Attrs: mustprogress uwtable
define linkonce_odr noundef double @_ZN5folly6Random12randDouble01INS_15ThreadLocalPRNGES2_EEdOT_(ptr noundef nonnull align 1 dereferenceable(1) %rng) #0 comdat align 2 {
entry:
  %rng.addr = alloca ptr, align 8
  store ptr %rng, ptr %rng.addr, align 8
  %0 = load ptr, ptr %rng.addr, align 8
  %call = call noundef i64 @_ZN5folly6Random6rand64INS_15ThreadLocalPRNGES2_EEmOT_(ptr noundef nonnull align 1 dereferenceable(1) %0)
  %shr = lshr i64 %call, 11
  %conv = uitofp i64 %shr to double
  %mul = fmul double %conv, 0x3CA0000000000000
  ret double %mul
}

; Function Attrs: mustprogress uwtable
define linkonce_odr noundef double @_ZN5folly6Random12randDouble01Ev() #0 comdat align 2 {
entry:
  %ref.tmp = alloca %"class.folly::ThreadLocalPRNG", align 1
  %call = call noundef double @_ZN5folly6Random12randDouble01INS_15ThreadLocalPRNGES2_EEdOT_(ptr noundef nonnull align 1 dereferenceable(1) %ref.tmp)
  ret double %call
}

; Function Attrs: mustprogress uwtable
define noundef zeroext i1 @_ZNK8proxygen8Sampling7isLuckyEv(ptr noundef nonnull align 8 dereferenceable(20) %this) #0 align 2 {
entry:
  %retval = alloca i1, align 1
  %this.addr = alloca ptr, align 8
  store ptr %this, ptr %this.addr, align 8
  %this1 = load ptr, ptr %this.addr, align 8
  %rate_ = getelementptr inbounds %"class.proxygen::Sampling", ptr %this1, i32 0, i32 1
  %0 = load double, ptr %rate_, align 8
  %cmp = fcmp oge double %0, 1.000000e+00
  br i1 %cmp, label %if.then, label %if.end

if.then:                                          ; preds = %entry
  store i1 true, ptr %retval, align 1
  br label %return

if.end:                                           ; preds = %entry
  %call = call noundef double @_ZN5folly6Random12randDouble01Ev()
  %rate_2 = getelementptr inbounds %"class.proxygen::Sampling", ptr %this1, i32 0, i32 1
  %1 = load double, ptr %rate_2, align 8
  %cmp3 = fcmp olt double %call, %1
  store i1 %cmp3, ptr %retval, align 1
  br label %return

return:                                           ; preds = %if.end, %if.then
  %2 = load i1, ptr %retval, align 1
  ret i1 %2
}