; Function Attrs: mustprogress uwtable
define noundef zeroext i1 @_ZNK8proxygen8Sampling7isLuckyEv(ptr nocapture noundef nonnull readonly align 8 dereferenceable(20) %this) local_unnamed_addr #0 align 2 {
entry:
  %ref.tmp.i = alloca %"class.folly::ThreadLocalPRNG", align 1
  %rate_ = getelementptr inbounds i8, ptr %this, i64 8
  %0 = load double, ptr %rate_, align 8
  %cmp = fcmp ult double %0, 1.000000e+00
  br i1 %cmp, label %if.end, label %return

if.end:                                           ; preds = %entry
  call void @llvm.lifetime.start.p0(i64 1, ptr nonnull %ref.tmp.i)
  %call.i.i.i = call noundef i32 @_ZN5folly15ThreadLocalPRNGclEv(ptr noundef nonnull align 1 dereferenceable(1) %ref.tmp.i)
  %conv.i.i.i = zext i32 %call.i.i.i to i64
  %shl.i.i.i = shl nuw i64 %conv.i.i.i, 32
  %call1.i.i.i = call noundef i32 @_ZN5folly15ThreadLocalPRNGclEv(ptr noundef nonnull align 1 dereferenceable(1) %ref.tmp.i)
  %conv2.i.i.i = zext i32 %call1.i.i.i to i64
  %or.i.i.i = or disjoint i64 %shl.i.i.i, %conv2.i.i.i
  %shr.i.i = lshr i64 %or.i.i.i, 11
  %conv.i.i = uitofp i64 %shr.i.i to double
  %mul.i.i = fmul double %conv.i.i, 0x3CA0000000000000
  call void @llvm.lifetime.end.p0(i64 1, ptr nonnull %ref.tmp.i)
  %1 = load double, ptr %rate_, align 8
  %cmp3 = fcmp olt double %mul.i.i, %1
  br label %return

return:                                           ; preds = %entry, %if.end
  %retval.0 = phi i1 [ %cmp3, %if.end ], [ true, %entry ]
  ret i1 %retval.0
}